; Function Attrs: mustprogress nounwind uwtable
define void @_ZN5arrow3ipc7MessageD2Ev(ptr noundef nonnull align 8 captures(none) dereferenceable(8) %0) unnamed_addr #3 align 2 personality ptr @__gxx_personality_v0 {
  %2 = load ptr, ptr %0, align 8, !tbaa !15
  %.not.i = icmp eq ptr %2, null
  br i1 %.not.i, label %_ZNSt10unique_ptrIN5arrow3ipc7Message11MessageImplESt14default_deleteIS3_EED2Ev.exit, label %_ZNKSt14default_deleteIN5arrow3ipc7Message11MessageImplEEclEPS3_.exit.i

_ZNKSt14default_deleteIN5arrow3ipc7Message11MessageImplEEclEPS3_.exit.i: ; preds = %1
  tail call void @_ZN5arrow3ipc7Message11MessageImplD2Ev(ptr noundef nonnull align 8 dereferenceable(56) %2) #29
  tail call void @_ZdlPvm(ptr noundef nonnull %2, i64 noundef 56) #30
  br label %_ZNSt10unique_ptrIN5arrow3ipc7Message11MessageImplESt14default_deleteIS3_EED2Ev.exit

_ZNSt10unique_ptrIN5arrow3ipc7Message11MessageImplESt14default_deleteIS3_EED2Ev.exit: ; preds = %1, %_ZNKSt14default_deleteIN5arrow3ipc7Message11MessageImplEEclEPS3_.exit.i
  store ptr null, ptr %0, align 8, !tbaa !15
  ret void
}